; Function Attrs: mustprogress uwtable
define internal fastcc void @_ZN12_GLOBAL__N_19ParamNameB5cxx11ERKN7testing13TestParamInfoISt5tupleIJddEEEE(ptr noalias sret(%"class.std::__cxx11::basic_string") align 8 %agg.result, ptr nocapture noundef nonnull readonly align 8 dereferenceable(24) %info) unnamed_addr #4 personality ptr @__gxx_personality_v0 {
entry:
  %name = alloca %"class.std::__cxx11::basic_string", align 8
  %ref.tmp = alloca %"class.absl::AlphaNum", align 8
  %ref.tmp1 = alloca %"class.absl::AlphaNum", align 8
  %ref.tmp2 = alloca %"class.absl::AlphaNum", align 8
  %ref.tmp3 = alloca %"class.absl::AlphaNum", align 8
  %ref.tmp8 = alloca [3 x %"struct.std::pair"], align 8
  store i64 6, ptr %ref.tmp, align 8
  %0 = getelementptr inbounds i8, ptr %ref.tmp, i64 8
  store ptr @.str.64, ptr %0, align 8
  %add.ptr.i.i.i = getelementptr inbounds i8, ptr %info, i64 8
  %1 = load double, ptr %add.ptr.i.i.i, align 8
  %digits_.i = getelementptr inbounds i8, ptr %ref.tmp1, i64 16
  %call.i = call noundef i64 @_ZN4absl16numbers_internal17SixDigitsToBufferEdPc(double noundef %1, ptr noundef nonnull %digits_.i)
  store i64 %call.i, ptr %ref.tmp1, align 8
  %_M_str.i.i = getelementptr inbounds i8, ptr %ref.tmp1, i64 8
  store ptr %digits_.i, ptr %_M_str.i.i, align 8
  store i64 7, ptr %ref.tmp2, align 8
  %2 = getelementptr inbounds i8, ptr %ref.tmp2, i64 8
  store ptr @.str.65, ptr %2, align 8
  %3 = load double, ptr %info, align 8
  %digits_.i3 = getelementptr inbounds i8, ptr %ref.tmp3, i64 16
  %call.i4 = call noundef i64 @_ZN4absl16numbers_internal17SixDigitsToBufferEdPc(double noundef %3, ptr noundef nonnull %digits_.i3)
  store i64 %call.i4, ptr %ref.tmp3, align 8
  %_M_str.i.i5 = getelementptr inbounds i8, ptr %ref.tmp3, i64 8
  store ptr %digits_.i3, ptr %_M_str.i.i5, align 8
  call void @_ZN4absl6StrCatB5cxx11ERKNS_8AlphaNumES2_S2_S2_(ptr nonnull sret(%"class.std::__cxx11::basic_string") align 8 %name, ptr noundef nonnull align 8 dereferenceable(48) %ref.tmp, ptr noundef nonnull align 8 dereferenceable(48) %ref.tmp1, ptr noundef nonnull align 8 dereferenceable(48) %ref.tmp2, ptr noundef nonnull align 8 dereferenceable(48) %ref.tmp3)
  %call6 = call { i64, ptr } @_ZNKSt7__cxx1112basic_stringIcSt11char_traitsIcESaIcEEcvSt17basic_string_viewIcS2_EEv(ptr noundef nonnull align 8 dereferenceable(32) %name) #31
  %4 = extractvalue { i64, ptr } %call6, 0
  %5 = extractvalue { i64, ptr } %call6, 1
  store i64 1, ptr %ref.tmp8, align 8
  %_M_str.i.i6 = getelementptr inbounds i8, ptr %ref.tmp8, i64 8
  store ptr @.str.66, ptr %_M_str.i.i6, align 8
  %second.i = getelementptr inbounds i8, ptr %ref.tmp8, i64 16
  store i64 1, ptr %second.i, align 8
  %_M_str.i2.i = getelementptr inbounds i8, ptr %ref.tmp8, i64 24
  store ptr @.str.67, ptr %_M_str.i2.i, align 8
  %arrayinit.element = getelementptr inbounds i8, ptr %ref.tmp8, i64 32
  store i64 1, ptr %arrayinit.element, align 8
  %_M_str.i.i8 = getelementptr inbounds i8, ptr %ref.tmp8, i64 40
  store ptr @.str.68, ptr %_M_str.i.i8, align 8
  %second.i9 = getelementptr inbounds i8, ptr %ref.tmp8, i64 48
  store i64 1, ptr %second.i9, align 8
  %_M_str.i2.i11 = getelementptr inbounds i8, ptr %ref.tmp8, i64 56
  store ptr @.str.67, ptr %_M_str.i2.i11, align 8
  %arrayinit.element10 = getelementptr inbounds i8, ptr %ref.tmp8, i64 64
  store i64 1, ptr %arrayinit.element10, align 8
  %_M_str.i.i13 = getelementptr inbounds i8, ptr %ref.tmp8, i64 72
  store ptr @.str.69, ptr %_M_str.i.i13, align 8
  %second.i14 = getelementptr inbounds i8, ptr %ref.tmp8, i64 80
  store i64 1, ptr %second.i14, align 8
  %_M_str.i2.i16 = getelementptr inbounds i8, ptr %ref.tmp8, i64 88
  store ptr @.str.67, ptr %_M_str.i2.i16, align 8
  invoke void @_ZN4absl13StrReplaceAllB5cxx11ESt17basic_string_viewIcSt11char_traitsIcEESt16initializer_listISt4pairIS3_S3_EE(ptr sret(%"class.std::__cxx11::basic_string") align 8 %agg.result, i64 %4, ptr %5, ptr nonnull %ref.tmp8, i64 3)
          to label %invoke.cont12 unwind label %lpad

invoke.cont12:                                    ; preds = %entry
  call void @_ZNSt7__cxx1112basic_stringIcSt11char_traitsIcESaIcEED1Ev(ptr noundef nonnull align 8 dereferenceable(32) %name) #31
  ret void

lpad:                                             ; preds = %entry
  %6 = landingpad { ptr, i32 }
          cleanup
  call void @_ZNSt7__cxx1112basic_stringIcSt11char_traitsIcESaIcEED1Ev(ptr noundef nonnull align 8 dereferenceable(32) %name) #31
  resume { ptr, i32 } %6
}